; ModuleID = '20/59.c'
source_filename = "20/59.c"
target datalayout = "e-m:e-p270:32:32-p271:32:32-p272:64:64-i64:64-f80:128-n8:16:32:64-S128"
target triple = "x86_64-pc-linux-gnu"

@.str = private unnamed_addr constant [6 x i8] c"%s %s\00", align 1
@.str.1 = private unnamed_addr constant [4 x i8] c"%s\0A\00", align 1

; Function Attrs: noinline nounwind uwtable
define dso_local void @main() #0 {
  %1 = alloca [100 x [100 x i8]], align 16
  %2 = alloca [100 x [4 x i8]], align 16
  %3 = alloca [100 x [100 x i8]], align 16
  %4 = alloca i8, align 1
  %5 = alloca i32, align 4
  %6 = alloca i32, align 4
  %7 = alloca i32, align 4
  %8 = alloca i32, align 4
  %9 = alloca i32, align 4
  store i32 0, i32* %5, align 4
  br label %10

10:                                               ; preds = %155, %0
  %11 = load i32, i32* %5, align 4
  %12 = icmp slt i32 %11, 10
  br i1 %12, label %13, label %158

13:                                               ; preds = %10
  %14 = load i32, i32* %5, align 4
  %15 = sext i32 %14 to i64
  %16 = getelementptr inbounds [100 x [100 x i8]], [100 x [100 x i8]]* %1, i64 0, i64 %15
  %17 = getelementptr inbounds [100 x i8], [100 x i8]* %16, i64 0, i64 0
  %18 = load i32, i32* %5, align 4
  %19 = sext i32 %18 to i64
  %20 = getelementptr inbounds [100 x [4 x i8]], [100 x [4 x i8]]* %2, i64 0, i64 %19
  %21 = getelementptr inbounds [4 x i8], [4 x i8]* %20, i64 0, i64 0
  %22 = call i32 (i8*, ...) @__isoc99_scanf(i8* getelementptr inbounds ([6 x i8], [6 x i8]* @.str, i64 0, i64 0), i8* %17, i8* %21)
  store i32 100, i32* %9, align 4
  %23 = load i32, i32* %5, align 4
  %24 = sext i32 %23 to i64
  %25 = getelementptr inbounds [100 x [100 x i8]], [100 x [100 x i8]]* %1, i64 0, i64 %24
  %26 = getelementptr inbounds [100 x i8], [100 x i8]* %25, i64 0, i64 0
  %27 = load i8, i8* %26, align 4
  %28 = sext i8 %27 to i32
  store i32 %28, i32* %7, align 4
  store i32 1, i32* %6, align 4
  br label %29

29:                                               ; preds = %53, %13
  %30 = load i32, i32* %6, align 4
  %31 = icmp slt i32 %30, 10
  br i1 %31, label %32, label %56

32:                                               ; preds = %29
  %33 = load i32, i32* %5, align 4
  %34 = sext i32 %33 to i64
  %35 = getelementptr inbounds [100 x [100 x i8]], [100 x [100 x i8]]* %1, i64 0, i64 %34
  %36 = load i32, i32* %6, align 4
  %37 = sext i32 %36 to i64
  %38 = getelementptr inbounds [100 x i8], [100 x i8]* %35, i64 0, i64 %37
  %39 = load i8, i8* %38, align 1
  %40 = sext i8 %39 to i32
  %41 = load i32, i32* %7, align 4
  %42 = icmp sgt i32 %40, %41
  br i1 %42, label %43, label %52

43:                                               ; preds = %32
  %44 = load i32, i32* %5, align 4
  %45 = sext i32 %44 to i64
  %46 = getelementptr inbounds [100 x [100 x i8]], [100 x [100 x i8]]* %1, i64 0, i64 %45
  %47 = load i32, i32* %6, align 4
  %48 = sext i32 %47 to i64
  %49 = getelementptr inbounds [100 x i8], [100 x i8]* %46, i64 0, i64 %48
  %50 = load i8, i8* %49, align 1
  %51 = sext i8 %50 to i32
  store i32 %51, i32* %7, align 4
  br label %52

52:                                               ; preds = %43, %32
  br label %53

53:                                               ; preds = %52
  %54 = load i32, i32* %6, align 4
  %55 = add nsw i32 %54, 1
  store i32 %55, i32* %6, align 4
  br label %29

56:                                               ; preds = %29
  store i32 0, i32* %6, align 4
  br label %57

57:                                               ; preds = %86, %56
  %58 = load i32, i32* %6, align 4
  %59 = icmp slt i32 %58, 10
  br i1 %59, label %60, label %89

60:                                               ; preds = %57
  %61 = load i32, i32* %5, align 4
  %62 = sext i32 %61 to i64
  %63 = getelementptr inbounds [100 x [100 x i8]], [100 x [100 x i8]]* %1, i64 0, i64 %62
  %64 = load i32, i32* %6, align 4
  %65 = sext i32 %64 to i64
  %66 = getelementptr inbounds [100 x i8], [100 x i8]* %63, i64 0, i64 %65
  %67 = load i8, i8* %66, align 1
  %68 = load i32, i32* %5, align 4
  %69 = sext i32 %68 to i64
  %70 = getelementptr inbounds [100 x [100 x i8]], [100 x [100 x i8]]* %3, i64 0, i64 %69
  %71 = load i32, i32* %6, align 4
  %72 = sext i32 %71 to i64
  %73 = getelementptr inbounds [100 x i8], [100 x i8]* %70, i64 0, i64 %72
  store i8 %67, i8* %73, align 1
  %74 = load i32, i32* %5, align 4
  %75 = sext i32 %74 to i64
  %76 = getelementptr inbounds [100 x [100 x i8]], [100 x [100 x i8]]* %1, i64 0, i64 %75
  %77 = load i32, i32* %6, align 4
  %78 = sext i32 %77 to i64
  %79 = getelementptr inbounds [100 x i8], [100 x i8]* %76, i64 0, i64 %78
  %80 = load i8, i8* %79, align 1
  %81 = sext i8 %80 to i32
  %82 = load i32, i32* %7, align 4
  %83 = icmp eq i32 %81, %82
  br i1 %83, label %84, label %85

84:                                               ; preds = %60
  br label %89

85:                                               ; preds = %60
  br label %86

86:                                               ; preds = %85
  %87 = load i32, i32* %6, align 4
  %88 = add nsw i32 %87, 1
  store i32 %88, i32* %6, align 4
  br label %57

89:                                               ; preds = %84, %57
  %90 = load i32, i32* %6, align 4
  %91 = add nsw i32 %90, 1
  store i32 %91, i32* %6, align 4
  %92 = load i32, i32* %6, align 4
  store i32 %92, i32* %8, align 4
  br label %93

93:                                               ; preds = %114, %89
  %94 = load i32, i32* %8, align 4
  %95 = load i32, i32* %6, align 4
  %96 = add nsw i32 %95, 3
  %97 = icmp slt i32 %94, %96
  br i1 %97, label %98, label %117

98:                                               ; preds = %93
  %99 = load i32, i32* %5, align 4
  %100 = sext i32 %99 to i64
  %101 = getelementptr inbounds [100 x [4 x i8]], [100 x [4 x i8]]* %2, i64 0, i64 %100
  %102 = load i32, i32* %8, align 4
  %103 = load i32, i32* %6, align 4
  %104 = sub nsw i32 %102, %103
  %105 = sext i32 %104 to i64
  %106 = getelementptr inbounds [4 x i8], [4 x i8]* %101, i64 0, i64 %105
  %107 = load i8, i8* %106, align 1
  %108 = load i32, i32* %5, align 4
  %109 = sext i32 %108 to i64
  %110 = getelementptr inbounds [100 x [100 x i8]], [100 x [100 x i8]]* %3, i64 0, i64 %109
  %111 = load i32, i32* %8, align 4
  %112 = sext i32 %111 to i64
  %113 = getelementptr inbounds [100 x i8], [100 x i8]* %110, i64 0, i64 %112
  store i8 %107, i8* %113, align 1
  br label %114

114:                                              ; preds = %98
  %115 = load i32, i32* %8, align 4
  %116 = add nsw i32 %115, 1
  store i32 %116, i32* %8, align 4
  br label %93

117:                                              ; preds = %93
  %118 = load i32, i32* %6, align 4
  %119 = add nsw i32 %118, 3
  store i32 %119, i32* %8, align 4
  br label %120

120:                                              ; preds = %140, %117
  %121 = load i32, i32* %8, align 4
  %122 = load i32, i32* %9, align 4
  %123 = add nsw i32 3, %122
  %124 = icmp slt i32 %121, %123
  br i1 %124, label %125, label %143

125:                                              ; preds = %120
  %126 = load i32, i32* %5, align 4
  %127 = sext i32 %126 to i64
  %128 = getelementptr inbounds [100 x [100 x i8]], [100 x [100 x i8]]* %1, i64 0, i64 %127
  %129 = load i32, i32* %8, align 4
  %130 = sub nsw i32 %129, 3
  %131 = sext i32 %130 to i64
  %132 = getelementptr inbounds [100 x i8], [100 x i8]* %128, i64 0, i64 %131
  %133 = load i8, i8* %132, align 1
  %134 = load i32, i32* %5, align 4
  %135 = sext i32 %134 to i64
  %136 = getelementptr inbounds [100 x [100 x i8]], [100 x [100 x i8]]* %3, i64 0, i64 %135
  %137 = load i32, i32* %8, align 4
  %138 = sext i32 %137 to i64
  %139 = getelementptr inbounds [100 x i8], [100 x i8]* %136, i64 0, i64 %138
  store i8 %133, i8* %139, align 1
  br label %140

140:                                              ; preds = %125
  %141 = load i32, i32* %8, align 4
  %142 = add nsw i32 %141, 1
  store i32 %142, i32* %8, align 4
  br label %120

143:                                              ; preds = %120
  %144 = load i32, i32* %5, align 4
  %145 = sext i32 %144 to i64
  %146 = getelementptr inbounds [100 x [100 x i8]], [100 x [100 x i8]]* %3, i64 0, i64 %145
  %147 = getelementptr inbounds [100 x i8], [100 x i8]* %146, i64 0, i64 0
  %148 = call i32 (i8*, ...) @printf(i8* getelementptr inbounds ([4 x i8], [4 x i8]* @.str.1, i64 0, i64 0), i8* %147)
  %149 = call i32 @getchar()
  %150 = trunc i32 %149 to i8
  store i8 %150, i8* %4, align 1
  %151 = sext i8 %150 to i32
  %152 = icmp eq i32 %151, -1
  br i1 %152, label %153, label %154

153:                                              ; preds = %143
  br label %158

154:                                              ; preds = %143
  br label %155

155:                                              ; preds = %154
  %156 = load i32, i32* %5, align 4
  %157 = add nsw i32 %156, 1
  store i32 %157, i32* %5, align 4
  br label %10

158:                                              ; preds = %153, %10
  ret void
}

declare dso_local i32 @__isoc99_scanf(i8*, ...) #1

declare dso_local i32 @printf(i8*, ...) #1

declare dso_local i32 @getchar() #1


!llvm.module.flags = !{!0}
!llvm.ident = !{!1}

!0 = !{i32 1, !"wchar_size", i32 4}
!1 = !{!"clang version 10.0.0-4ubuntu1 "}
